; Function Attrs: mustprogress uwtable
define void @_ZN5boost11this_thread18interruption_pointEv() local_unnamed_addr #9 personality ptr @__gxx_personality_v0 {
  %1 = alloca %"class.boost::lock_error", align 8
  %2 = tail call noundef zeroext i1 @_ZN5boost13thread_detail17enter_once_regionERNS_9once_flagE(ptr noundef nonnull align 4 dereferenceable(4) @_ZN5boost6detail12_GLOBAL__N_128current_thread_tls_init_flagE) #32
  br i1 %2, label %_ZN5boost6detail6invokeIPFvvEJEEEDTclclsr5boostE7forwardIT_Efp_Espclsr5boostE7forwardIT0_Efp0_EEEOS4_DpOS5_.exit.i.i, label %_ZN5boost6detail23get_current_thread_dataEv.exit

_ZN5boost6detail6invokeIPFvvEJEEEDTclclsr5boostE7forwardIT_Efp_Espclsr5boostE7forwardIT0_Efp0_EEEOS4_DpOS5_.exit.i.i: ; preds = %0
  %3 = tail call i32 @pthread_key_create(ptr noundef nonnull @_ZN5boost6detail12_GLOBAL__N_122current_thread_tls_keyE, ptr noundef nonnull @_ZN5boost6detail12_GLOBAL__N_114tls_destructorEPv) #32
  tail call void @_ZN5boost13thread_detail18commit_once_regionERNS_9once_flagE(ptr noundef nonnull align 4 dereferenceable(4) @_ZN5boost6detail12_GLOBAL__N_128current_thread_tls_init_flagE) #32
  br label %_ZN5boost6detail23get_current_thread_dataEv.exit

_ZN5boost6detail23get_current_thread_dataEv.exit: ; preds = %0, %_ZN5boost6detail6invokeIPFvvEJEEEDTclclsr5boostE7forwardIT_Efp_Espclsr5boostE7forwardIT0_Efp0_EEEOS4_DpOS5_.exit.i.i
  %4 = load i32, ptr @_ZN5boost6detail12_GLOBAL__N_122current_thread_tls_keyE, align 4, !tbaa !54
  %5 = tail call noundef ptr @pthread_getspecific(i32 noundef %4) #32
  %.not = icmp eq ptr %5, null
  br i1 %.not, label %_ZN5boost10lock_guardINS_5mutexEED2Ev.exit6, label %6

6:                                                ; preds = %_ZN5boost6detail23get_current_thread_dataEv.exit
  %7 = getelementptr inbounds nuw i8, ptr %5, i64 304
  %8 = load i8, ptr %7, align 8, !tbaa !56, !range !51, !noundef !52
  %9 = trunc nuw i8 %8 to i1
  br i1 %9, label %10, label %_ZN5boost10lock_guardINS_5mutexEED2Ev.exit6

10:                                               ; preds = %6
  %11 = getelementptr inbounds nuw i8, ptr %5, i64 48
  br label %12

12:                                               ; preds = %12, %10
  %13 = tail call i32 @pthread_mutex_lock(ptr noundef nonnull align 8 dereferenceable(40) %11) #32
  switch i32 %13, label %14 [
    i32 4, label %12
    i32 0, label %_ZN5boost10lock_guardINS_5mutexEEC2ERS1_.exit
  ]

14:                                               ; preds = %12
  call void @llvm.lifetime.start.p0(i64 40, ptr nonnull %1) #32
  call void @_ZN5boost10lock_errorC2EiPKc(ptr noundef nonnull align 8 dereferenceable(40) %1, i32 noundef %13, ptr noundef nonnull @.str.27)
  invoke void @_ZN5boost15throw_exceptionINS_10lock_errorEEEvRKT_(ptr noundef nonnull align 8 dereferenceable(40) %1) #33
          to label %15 unwind label %16

15:                                               ; preds = %14
  unreachable

common.resume:                                    ; preds = %25, %16
  %common.resume.op = phi { ptr, i32 } [ %17, %16 ], [ %24, %25 ]
  resume { ptr, i32 } %common.resume.op

16:                                               ; preds = %14
  %17 = landingpad { ptr, i32 }
          cleanup
  call void @_ZNSt13runtime_errorD2Ev(ptr noundef nonnull align 8 dereferenceable(40) %1) #32
  call void @llvm.lifetime.end.p0(i64 40, ptr nonnull %1) #32
  br label %common.resume

_ZN5boost10lock_guardINS_5mutexEEC2ERS1_.exit:    ; preds = %12
  %18 = getelementptr inbounds nuw i8, ptr %5, i64 305
  %19 = load i8, ptr %18, align 1, !tbaa !146, !range !51, !noundef !52
  %20 = trunc nuw i8 %19 to i1
  br i1 %20, label %21, label %.preheader

21:                                               ; preds = %_ZN5boost10lock_guardINS_5mutexEEC2ERS1_.exit
  store i8 0, ptr %18, align 1, !tbaa !146
  %22 = tail call ptr @__cxa_allocate_exception(i64 1) #32
  invoke void @__cxa_throw(ptr %22, ptr nonnull @_ZTIN5boost18thread_interruptedE, ptr null) #33
          to label %30 unwind label %23

23:                                               ; preds = %21
  %24 = landingpad { ptr, i32 }
          cleanup
  br label %25

25:                                               ; preds = %25, %23
  %26 = tail call i32 @pthread_mutex_unlock(ptr noundef nonnull align 8 dereferenceable(40) %11) #32
  %27 = icmp eq i32 %26, 4
  br i1 %27, label %25, label %common.resume, !llvm.loop !22

.preheader:                                       ; preds = %_ZN5boost10lock_guardINS_5mutexEEC2ERS1_.exit, %.preheader
  %28 = tail call i32 @pthread_mutex_unlock(ptr noundef nonnull align 8 dereferenceable(40) %11) #32
  %29 = icmp eq i32 %28, 4
  br i1 %29, label %.preheader, label %_ZN5boost10lock_guardINS_5mutexEED2Ev.exit6, !llvm.loop !22

_ZN5boost10lock_guardINS_5mutexEED2Ev.exit6:      ; preds = %.preheader, %6, %_ZN5boost6detail23get_current_thread_dataEv.exit
  ret void

30:                                               ; preds = %21
  unreachable
}